target datalayout = "e-m:e-p270:32:32-p271:32:32-p272:64:64-i64:64-i128:128-f80:128-n8:16:32:64-S128"
target triple = "x86_64-pc-linux-gnu"

%class.ProbElem = type { ptr }
%"class.std::__cxx11::basic_string" = type { %"struct.std::__cxx11::basic_string<char>::_Alloc_hider", i64, %union.anon }
%"struct.std::__cxx11::basic_string<char>::_Alloc_hider" = type { ptr }
%union.anon = type { i64, [8 x i8] }
%class.SingleProbElem = type <{ %class.ProbElem, %"class.std::__cxx11::basic_string", i32, i32, i32, [4 x i8] }>

; Function Attrs: mustprogress nounwind uwtable
define dso_local void @_ZN14SingleProbElem8set_probE8ProbNamei(ptr noundef nonnull align 8 dereferenceable(52) %0, i32 noundef %1, i32 noundef %2) unnamed_addr #5 align 2 {
  %4 = alloca ptr, align 8
  %5 = alloca i32, align 4
  %6 = alloca i32, align 4
  store ptr %0, ptr %4, align 8
  store i32 %1, ptr %5, align 4
  store i32 %2, ptr %6, align 4
  %7 = load ptr, ptr %4, align 8
  %8 = load i32, ptr %5, align 4
  %9 = icmp eq i32 %8, 77
  br i1 %9, label %10, label %11

10:                                               ; preds = %3
  br label %11

11:                                               ; preds = %10, %3
  %12 = load i32, ptr %6, align 4
  %13 = icmp sge i32 %12, 0
  br i1 %13, label %14, label %17

14:                                               ; preds = %11
  %15 = load i32, ptr %6, align 4
  %16 = getelementptr inbounds %class.SingleProbElem, ptr %7, i32 0, i32 4
  store i32 %15, ptr %16, align 8
  br label %17

17:                                               ; preds = %14, %11
  ret void
}