; Function Attrs: mustprogress nofree norecurse nosync nounwind willreturn memory(argmem: write) uwtable
define dso_local void @_ZN14SingleProbElem8set_probE8ProbNamei(ptr nocapture noundef nonnull writeonly align 8 dereferenceable(52) %0, i32 %1, i32 noundef %2) unnamed_addr #11 align 2 {
  %4 = icmp sgt i32 %2, -1
  br i1 %4, label %5, label %7

5:                                                ; preds = %3
  %6 = getelementptr inbounds i8, ptr %0, i64 48
  store i32 %2, ptr %6, align 8
  br label %7

7:                                                ; preds = %5, %3
  ret void
}